target datalayout = "e-m:e-p270:32:32-p271:32:32-p272:64:64-i64:64-i128:128-f80:128-n8:16:32:64-S128"
target triple = "x86_64-pc-linux-gnu"

%struct.t_atoms = type { i32, ptr, ptr, ptr, ptr, i32, ptr, ptr, i8, i8, i8, i8, i8 }
%struct.t_atom = type { float, float, float, float, i16, i16, i32, i32, i32, [4 x i8] }
%struct.t_pdbinfo = type { i32, i32, i8, [6 x i8], float, float, i8, [6 x i32] }
%struct.t_resinfo = type { ptr, i32, i8, i32, i8, ptr }

@.str.6 = private unnamed_addr constant [124 x i8] c"generated/home/dtcxzyw/WorkSpace/Projects/compilers/llvm-opt-benchmark/bench/gromacs/gromacs/src/gromacs/topology/atoms.cpp\00", align 1
@.str.12 = private unnamed_addr constant [16 x i8] c"atoms->atomname\00", align 1
@.str.13 = private unnamed_addr constant [12 x i8] c"atoms->atom\00", align 1
@.str.14 = private unnamed_addr constant [15 x i8] c"atoms->pdbinfo\00", align 1
@.str.15 = private unnamed_addr constant [16 x i8] c"atoms->atomtype\00", align 1
@.str.16 = private unnamed_addr constant [17 x i8] c"atoms->atomtypeB\00", align 1
@.str.17 = private unnamed_addr constant [15 x i8] c"atoms->resinfo\00", align 1

; Function Attrs: inlinehint mustprogress uwtable
define internal void @_ZL15gmx_srenew_implI9t_resinfoEvPKcS2_iRPT_m(ptr noundef %0, ptr noundef %1, i32 noundef %2, ptr noundef nonnull align 8 dereferenceable(8) %3, i64 noundef %4) #10 {
  %6 = alloca ptr, align 8
  %7 = alloca ptr, align 8
  %8 = alloca i32, align 4
  %9 = alloca ptr, align 8
  %10 = alloca i64, align 8
  store ptr %0, ptr %6, align 8, !tbaa !8
  store ptr %1, ptr %7, align 8, !tbaa !8
  store i32 %2, ptr %8, align 4, !tbaa !60
  store ptr %3, ptr %9, align 8, !tbaa !131
  store i64 %4, ptr %10, align 8, !tbaa !75
  %11 = load ptr, ptr %6, align 8, !tbaa !8
  %12 = load ptr, ptr %7, align 8, !tbaa !8
  %13 = load i32, ptr %8, align 4, !tbaa !60
  %14 = load ptr, ptr %9, align 8, !tbaa !131
  %15 = load ptr, ptr %14, align 8, !tbaa !116
  %16 = load i64, ptr %10, align 8, !tbaa !75
  %17 = call noundef ptr @_Z12save_reallocPKcS0_iPvmm(ptr noundef %11, ptr noundef %12, i32 noundef %13, ptr noundef %15, i64 noundef %16, i64 noundef 32)
  %18 = load ptr, ptr %9, align 8, !tbaa !131
  store ptr %17, ptr %18, align 8, !tbaa !116
  ret void
}

; Function Attrs: inlinehint mustprogress uwtable
define internal void @_ZL15gmx_srenew_implI9t_pdbinfoEvPKcS2_iRPT_m(ptr noundef %0, ptr noundef %1, i32 noundef %2, ptr noundef nonnull align 8 dereferenceable(8) %3, i64 noundef %4) #10 {
  %6 = alloca ptr, align 8
  %7 = alloca ptr, align 8
  %8 = alloca i32, align 4
  %9 = alloca ptr, align 8
  %10 = alloca i64, align 8
  store ptr %0, ptr %6, align 8, !tbaa !8
  store ptr %1, ptr %7, align 8, !tbaa !8
  store i32 %2, ptr %8, align 4, !tbaa !60
  store ptr %3, ptr %9, align 8, !tbaa !129
  store i64 %4, ptr %10, align 8, !tbaa !75
  %11 = load ptr, ptr %6, align 8, !tbaa !8
  %12 = load ptr, ptr %7, align 8, !tbaa !8
  %13 = load i32, ptr %8, align 4, !tbaa !60
  %14 = load ptr, ptr %9, align 8, !tbaa !129
  %15 = load ptr, ptr %14, align 8, !tbaa !118
  %16 = load i64, ptr %10, align 8, !tbaa !75
  %17 = call noundef ptr @_Z12save_reallocPKcS0_iPvmm(ptr noundef %11, ptr noundef %12, i32 noundef %13, ptr noundef %15, i64 noundef %16, i64 noundef 52)
  %18 = load ptr, ptr %9, align 8, !tbaa !129
  store ptr %17, ptr %18, align 8, !tbaa !118
  ret void
}

; Function Attrs: inlinehint mustprogress uwtable
define internal void @_ZL15gmx_srenew_implI6t_atomEvPKcS2_iRPT_m(ptr noundef %0, ptr noundef %1, i32 noundef %2, ptr noundef nonnull align 8 dereferenceable(8) %3, i64 noundef %4) #10 {
  %6 = alloca ptr, align 8
  %7 = alloca ptr, align 8
  %8 = alloca i32, align 4
  %9 = alloca ptr, align 8
  %10 = alloca i64, align 8
  store ptr %0, ptr %6, align 8, !tbaa !8
  store ptr %1, ptr %7, align 8, !tbaa !8
  store i32 %2, ptr %8, align 4, !tbaa !60
  store ptr %3, ptr %9, align 8, !tbaa !127
  store i64 %4, ptr %10, align 8, !tbaa !75
  %11 = load ptr, ptr %6, align 8, !tbaa !8
  %12 = load ptr, ptr %7, align 8, !tbaa !8
  %13 = load i32, ptr %8, align 4, !tbaa !60
  %14 = load ptr, ptr %9, align 8, !tbaa !127
  %15 = load ptr, ptr %14, align 8, !tbaa !115
  %16 = load i64, ptr %10, align 8, !tbaa !75
  %17 = call noundef ptr @_Z12save_reallocPKcS0_iPvmm(ptr noundef %11, ptr noundef %12, i32 noundef %13, ptr noundef %15, i64 noundef %16, i64 noundef 36)
  %18 = load ptr, ptr %9, align 8, !tbaa !127
  store ptr %17, ptr %18, align 8, !tbaa !115
  ret void
}

; Function Attrs: inlinehint mustprogress uwtable
define internal void @_ZL15gmx_srenew_implIPPcEvPKcS3_iRPT_m(ptr noundef %0, ptr noundef %1, i32 noundef %2, ptr noundef nonnull align 8 dereferenceable(8) %3, i64 noundef %4) #10 {
  %6 = alloca ptr, align 8
  %7 = alloca ptr, align 8
  %8 = alloca i32, align 4
  %9 = alloca ptr, align 8
  %10 = alloca i64, align 8
  store ptr %0, ptr %6, align 8, !tbaa !8
  store ptr %1, ptr %7, align 8, !tbaa !8
  store i32 %2, ptr %8, align 4, !tbaa !60
  store ptr %3, ptr %9, align 8, !tbaa !124
  store i64 %4, ptr %10, align 8, !tbaa !75
  %11 = load ptr, ptr %6, align 8, !tbaa !8
  %12 = load ptr, ptr %7, align 8, !tbaa !8
  %13 = load i32, ptr %8, align 4, !tbaa !60
  %14 = load ptr, ptr %9, align 8, !tbaa !124
  %15 = load ptr, ptr %14, align 8, !tbaa !117
  %16 = load i64, ptr %10, align 8, !tbaa !75
  %17 = call noundef ptr @_Z12save_reallocPKcS0_iPvmm(ptr noundef %11, ptr noundef %12, i32 noundef %13, ptr noundef %15, i64 noundef %16, i64 noundef 8)
  %18 = load ptr, ptr %9, align 8, !tbaa !124
  store ptr %17, ptr %18, align 8, !tbaa !117
  ret void
}

; Function Attrs: mustprogress uwtable
define void @_Z11add_t_atomsP7t_atomsii(ptr noundef %0, i32 noundef %1, i32 noundef %2) #0 {
  %4 = alloca ptr, align 8
  %5 = alloca i32, align 4
  %6 = alloca i32, align 4
  %7 = alloca i32, align 4
  %8 = alloca i32, align 4
  store ptr %0, ptr %4, align 8, !tbaa !93
  store i32 %1, ptr %5, align 4, !tbaa !60
  store i32 %2, ptr %6, align 4, !tbaa !60
  %9 = load i32, ptr %5, align 4, !tbaa !60
  %10 = icmp sgt i32 %9, 0
  br i1 %10, label %11, label %140

11:                                               ; preds = %3
  %12 = load ptr, ptr %4, align 8, !tbaa !93
  %13 = getelementptr inbounds nuw %struct.t_atoms, ptr %12, i32 0, i32 2
  %14 = load ptr, ptr %4, align 8, !tbaa !93
  %15 = getelementptr inbounds nuw %struct.t_atoms, ptr %14, i32 0, i32 0
  %16 = load i32, ptr %15, align 8, !tbaa !95
  %17 = load i32, ptr %5, align 4, !tbaa !60
  %18 = add nsw i32 %16, %17
  %19 = sext i32 %18 to i64
  call void @_ZL15gmx_srenew_implIPPcEvPKcS3_iRPT_m(ptr noundef @.str.12, ptr noundef @.str.6, i32 noundef 257, ptr noundef nonnull align 8 dereferenceable(8) %13, i64 noundef %19)
  %20 = load ptr, ptr %4, align 8, !tbaa !93
  %21 = getelementptr inbounds nuw %struct.t_atoms, ptr %20, i32 0, i32 1
  %22 = load ptr, ptr %4, align 8, !tbaa !93
  %23 = getelementptr inbounds nuw %struct.t_atoms, ptr %22, i32 0, i32 0
  %24 = load i32, ptr %23, align 8, !tbaa !95
  %25 = load i32, ptr %5, align 4, !tbaa !60
  %26 = add nsw i32 %24, %25
  %27 = sext i32 %26 to i64
  call void @_ZL15gmx_srenew_implI6t_atomEvPKcS2_iRPT_m(ptr noundef @.str.13, ptr noundef @.str.6, i32 noundef 258, ptr noundef nonnull align 8 dereferenceable(8) %21, i64 noundef %27)
  %28 = load ptr, ptr %4, align 8, !tbaa !93
  %29 = getelementptr inbounds nuw %struct.t_atoms, ptr %28, i32 0, i32 7
  %30 = load ptr, ptr %29, align 8, !tbaa !109
  %31 = icmp ne ptr null, %30
  br i1 %31, label %32, label %41

32:                                               ; preds = %11
  %33 = load ptr, ptr %4, align 8, !tbaa !93
  %34 = getelementptr inbounds nuw %struct.t_atoms, ptr %33, i32 0, i32 7
  %35 = load ptr, ptr %4, align 8, !tbaa !93
  %36 = getelementptr inbounds nuw %struct.t_atoms, ptr %35, i32 0, i32 0
  %37 = load i32, ptr %36, align 8, !tbaa !95
  %38 = load i32, ptr %5, align 4, !tbaa !60
  %39 = add nsw i32 %37, %38
  %40 = sext i32 %39 to i64
  call void @_ZL15gmx_srenew_implI9t_pdbinfoEvPKcS2_iRPT_m(ptr noundef @.str.14, ptr noundef @.str.6, i32 noundef 261, ptr noundef nonnull align 8 dereferenceable(8) %34, i64 noundef %40)
  br label %41

41:                                               ; preds = %32, %11
  %42 = load ptr, ptr %4, align 8, !tbaa !93
  %43 = getelementptr inbounds nuw %struct.t_atoms, ptr %42, i32 0, i32 3
  %44 = load ptr, ptr %43, align 8, !tbaa !107
  %45 = icmp ne ptr null, %44
  br i1 %45, label %46, label %55

46:                                               ; preds = %41
  %47 = load ptr, ptr %4, align 8, !tbaa !93
  %48 = getelementptr inbounds nuw %struct.t_atoms, ptr %47, i32 0, i32 3
  %49 = load ptr, ptr %4, align 8, !tbaa !93
  %50 = getelementptr inbounds nuw %struct.t_atoms, ptr %49, i32 0, i32 0
  %51 = load i32, ptr %50, align 8, !tbaa !95
  %52 = load i32, ptr %5, align 4, !tbaa !60
  %53 = add nsw i32 %51, %52
  %54 = sext i32 %53 to i64
  call void @_ZL15gmx_srenew_implIPPcEvPKcS3_iRPT_m(ptr noundef @.str.15, ptr noundef @.str.6, i32 noundef 265, ptr noundef nonnull align 8 dereferenceable(8) %48, i64 noundef %54)
  br label %55

55:                                               ; preds = %46, %41
  %56 = load ptr, ptr %4, align 8, !tbaa !93
  %57 = getelementptr inbounds nuw %struct.t_atoms, ptr %56, i32 0, i32 4
  %58 = load ptr, ptr %57, align 8, !tbaa !108
  %59 = icmp ne ptr null, %58
  br i1 %59, label %60, label %69

60:                                               ; preds = %55
  %61 = load ptr, ptr %4, align 8, !tbaa !93
  %62 = getelementptr inbounds nuw %struct.t_atoms, ptr %61, i32 0, i32 4
  %63 = load ptr, ptr %4, align 8, !tbaa !93
  %64 = getelementptr inbounds nuw %struct.t_atoms, ptr %63, i32 0, i32 0
  %65 = load i32, ptr %64, align 8, !tbaa !95
  %66 = load i32, ptr %5, align 4, !tbaa !60
  %67 = add nsw i32 %65, %66
  %68 = sext i32 %67 to i64
  call void @_ZL15gmx_srenew_implIPPcEvPKcS3_iRPT_m(ptr noundef @.str.16, ptr noundef @.str.6, i32 noundef 269, ptr noundef nonnull align 8 dereferenceable(8) %62, i64 noundef %68)
  br label %69

69:                                               ; preds = %60, %55
  call void @llvm.lifetime.start.p0(i64 4, ptr %7) #13
  %70 = load ptr, ptr %4, align 8, !tbaa !93
  %71 = getelementptr inbounds nuw %struct.t_atoms, ptr %70, i32 0, i32 0
  %72 = load i32, ptr %71, align 8, !tbaa !95
  store i32 %72, ptr %7, align 4, !tbaa !60
  br label %73

73:                                               ; preds = %131, %69
  %74 = load i32, ptr %7, align 4, !tbaa !60
  %75 = load ptr, ptr %4, align 8, !tbaa !93
  %76 = getelementptr inbounds nuw %struct.t_atoms, ptr %75, i32 0, i32 0
  %77 = load i32, ptr %76, align 8, !tbaa !95
  %78 = load i32, ptr %5, align 4, !tbaa !60
  %79 = add nsw i32 %77, %78
  %80 = icmp slt i32 %74, %79
  br i1 %80, label %82, label %81

81:                                               ; preds = %73
  call void @llvm.lifetime.end.p0(i64 4, ptr %7) #13
  br label %134

82:                                               ; preds = %73
  %83 = load ptr, ptr %4, align 8, !tbaa !93
  %84 = getelementptr inbounds nuw %struct.t_atoms, ptr %83, i32 0, i32 2
  %85 = load ptr, ptr %84, align 8, !tbaa !106
  %86 = load i32, ptr %7, align 4, !tbaa !60
  %87 = sext i32 %86 to i64
  %88 = getelementptr inbounds ptr, ptr %85, i64 %87
  store ptr null, ptr %88, align 8, !tbaa !119
  %89 = load ptr, ptr %4, align 8, !tbaa !93
  %90 = getelementptr inbounds nuw %struct.t_atoms, ptr %89, i32 0, i32 1
  %91 = load ptr, ptr %90, align 8, !tbaa !104
  %92 = load i32, ptr %7, align 4, !tbaa !60
  %93 = sext i32 %92 to i64
  %94 = getelementptr inbounds %struct.t_atom, ptr %91, i64 %93
  call void @llvm.memset.p0.i64(ptr align 4 %94, i8 0, i64 36, i1 false)
  %95 = load ptr, ptr %4, align 8, !tbaa !93
  %96 = getelementptr inbounds nuw %struct.t_atoms, ptr %95, i32 0, i32 7
  %97 = load ptr, ptr %96, align 8, !tbaa !109
  %98 = icmp ne ptr null, %97
  br i1 %98, label %99, label %106

99:                                               ; preds = %82
  %100 = load ptr, ptr %4, align 8, !tbaa !93
  %101 = getelementptr inbounds nuw %struct.t_atoms, ptr %100, i32 0, i32 7
  %102 = load ptr, ptr %101, align 8, !tbaa !109
  %103 = load i32, ptr %7, align 4, !tbaa !60
  %104 = sext i32 %103 to i64
  %105 = getelementptr inbounds %struct.t_pdbinfo, ptr %102, i64 %104
  call void @llvm.memset.p0.i64(ptr align 4 %105, i8 0, i64 52, i1 false)
  br label %106

106:                                              ; preds = %99, %82
  %107 = load ptr, ptr %4, align 8, !tbaa !93
  %108 = getelementptr inbounds nuw %struct.t_atoms, ptr %107, i32 0, i32 3
  %109 = load ptr, ptr %108, align 8, !tbaa !107
  %110 = icmp ne ptr null, %109
  br i1 %110, label %111, label %118

111:                                              ; preds = %106
  %112 = load ptr, ptr %4, align 8, !tbaa !93
  %113 = getelementptr inbounds nuw %struct.t_atoms, ptr %112, i32 0, i32 3
  %114 = load ptr, ptr %113, align 8, !tbaa !107
  %115 = load i32, ptr %7, align 4, !tbaa !60
  %116 = sext i32 %115 to i64
  %117 = getelementptr inbounds ptr, ptr %114, i64 %116
  store ptr null, ptr %117, align 8, !tbaa !119
  br label %118

118:                                              ; preds = %111, %106
  %119 = load ptr, ptr %4, align 8, !tbaa !93
  %120 = getelementptr inbounds nuw %struct.t_atoms, ptr %119, i32 0, i32 4
  %121 = load ptr, ptr %120, align 8, !tbaa !108
  %122 = icmp ne ptr null, %121
  br i1 %122, label %123, label %130

123:                                              ; preds = %118
  %124 = load ptr, ptr %4, align 8, !tbaa !93
  %125 = getelementptr inbounds nuw %struct.t_atoms, ptr %124, i32 0, i32 4
  %126 = load ptr, ptr %125, align 8, !tbaa !108
  %127 = load i32, ptr %7, align 4, !tbaa !60
  %128 = sext i32 %127 to i64
  %129 = getelementptr inbounds ptr, ptr %126, i64 %128
  store ptr null, ptr %129, align 8, !tbaa !119
  br label %130

130:                                              ; preds = %123, %118
  br label %131

131:                                              ; preds = %130
  %132 = load i32, ptr %7, align 4, !tbaa !60
  %133 = add nsw i32 %132, 1
  store i32 %133, ptr %7, align 4, !tbaa !60
  br label %73, !llvm.loop !121

134:                                              ; preds = %81
  %135 = load i32, ptr %5, align 4, !tbaa !60
  %136 = load ptr, ptr %4, align 8, !tbaa !93
  %137 = getelementptr inbounds nuw %struct.t_atoms, ptr %136, i32 0, i32 0
  %138 = load i32, ptr %137, align 8, !tbaa !95
  %139 = add nsw i32 %138, %135
  store i32 %139, ptr %137, align 8, !tbaa !95
  br label %140

140:                                              ; preds = %134, %3
  %141 = load i32, ptr %6, align 4, !tbaa !60
  %142 = icmp sgt i32 %141, 0
  br i1 %142, label %143, label %180

143:                                              ; preds = %140
  %144 = load ptr, ptr %4, align 8, !tbaa !93
  %145 = getelementptr inbounds nuw %struct.t_atoms, ptr %144, i32 0, i32 6
  %146 = load ptr, ptr %4, align 8, !tbaa !93
  %147 = getelementptr inbounds nuw %struct.t_atoms, ptr %146, i32 0, i32 5
  %148 = load i32, ptr %147, align 8, !tbaa !103
  %149 = load i32, ptr %6, align 4, !tbaa !60
  %150 = add nsw i32 %148, %149
  %151 = sext i32 %150 to i64
  call void @_ZL15gmx_srenew_implI9t_resinfoEvPKcS2_iRPT_m(ptr noundef @.str.17, ptr noundef @.str.6, i32 noundef 292, ptr noundef nonnull align 8 dereferenceable(8) %145, i64 noundef %151)
  call void @llvm.lifetime.start.p0(i64 4, ptr %8) #13
  %152 = load ptr, ptr %4, align 8, !tbaa !93
  %153 = getelementptr inbounds nuw %struct.t_atoms, ptr %152, i32 0, i32 5
  %154 = load i32, ptr %153, align 8, !tbaa !103
  store i32 %154, ptr %8, align 4, !tbaa !60
  br label %155

155:                                              ; preds = %171, %143
  %156 = load i32, ptr %8, align 4, !tbaa !60
  %157 = load ptr, ptr %4, align 8, !tbaa !93
  %158 = getelementptr inbounds nuw %struct.t_atoms, ptr %157, i32 0, i32 5
  %159 = load i32, ptr %158, align 8, !tbaa !103
  %160 = load i32, ptr %6, align 4, !tbaa !60
  %161 = add nsw i32 %159, %160
  %162 = icmp slt i32 %156, %161
  br i1 %162, label %164, label %163

163:                                              ; preds = %155
  call void @llvm.lifetime.end.p0(i64 4, ptr %8) #13
  br label %174

164:                                              ; preds = %155
  %165 = load ptr, ptr %4, align 8, !tbaa !93
  %166 = getelementptr inbounds nuw %struct.t_atoms, ptr %165, i32 0, i32 6
  %167 = load ptr, ptr %166, align 8, !tbaa !105
  %168 = load i32, ptr %8, align 4, !tbaa !60
  %169 = sext i32 %168 to i64
  %170 = getelementptr inbounds %struct.t_resinfo, ptr %167, i64 %169
  call void @llvm.memset.p0.i64(ptr align 8 %170, i8 0, i64 32, i1 false)
  br label %171

171:                                              ; preds = %164
  %172 = load i32, ptr %8, align 4, !tbaa !60
  %173 = add nsw i32 %172, 1
  store i32 %173, ptr %8, align 4, !tbaa !60
  br label %155, !llvm.loop !123

174:                                              ; preds = %163
  %175 = load i32, ptr %6, align 4, !tbaa !60
  %176 = load ptr, ptr %4, align 8, !tbaa !93
  %177 = getelementptr inbounds nuw %struct.t_atoms, ptr %176, i32 0, i32 5
  %178 = load i32, ptr %177, align 8, !tbaa !103
  %179 = add nsw i32 %178, %175
  store i32 %179, ptr %177, align 8, !tbaa !103
  br label %180

180:                                              ; preds = %174, %140
  ret void
}