; Function Attrs: mustprogress uwtable
define void @_Z11add_t_atomsP7t_atomsii(ptr noundef captures(none) %0, i32 noundef %1, i32 noundef %2) local_unnamed_addr #1 {
  %4 = icmp sgt i32 %1, 0
  br i1 %4, label %5, label %63

5:                                                ; preds = %3
  %6 = getelementptr inbounds nuw i8, ptr %0, i64 16
  %7 = load i32, ptr %0, align 8, !tbaa !44
  %8 = add nsw i32 %7, %1
  %9 = sext i32 %8 to i64
  %10 = load ptr, ptr %6, align 8, !tbaa !58
  %11 = tail call noundef ptr @_Z12save_reallocPKcS0_iPvmm(ptr noundef nonnull @.str.12, ptr noundef nonnull @.str.6, i32 noundef 257, ptr noundef %10, i64 noundef range(i64 -2147483647, 2147483648) %9, i64 noundef 8)
  store ptr %11, ptr %6, align 8, !tbaa !58
  %12 = getelementptr inbounds nuw i8, ptr %0, i64 8
  %13 = load i32, ptr %0, align 8, !tbaa !44
  %14 = add nsw i32 %13, %1
  %15 = sext i32 %14 to i64
  %16 = load ptr, ptr %12, align 8, !tbaa !59
  %17 = tail call noundef ptr @_Z12save_reallocPKcS0_iPvmm(ptr noundef nonnull @.str.13, ptr noundef nonnull @.str.6, i32 noundef 258, ptr noundef %16, i64 noundef range(i64 -2147483647, 2147483648) %15, i64 noundef 36)
  store ptr %17, ptr %12, align 8, !tbaa !59
  %18 = getelementptr inbounds nuw i8, ptr %0, i64 56
  %19 = load ptr, ptr %18, align 8, !tbaa !57
  %.not = icmp eq ptr %19, null
  br i1 %.not, label %25, label %20

20:                                               ; preds = %5
  %21 = load i32, ptr %0, align 8, !tbaa !44
  %22 = add nsw i32 %21, %1
  %23 = sext i32 %22 to i64
  %24 = tail call noundef ptr @_Z12save_reallocPKcS0_iPvmm(ptr noundef nonnull @.str.14, ptr noundef nonnull @.str.6, i32 noundef 261, ptr noundef nonnull %19, i64 noundef range(i64 -2147483647, 2147483648) %23, i64 noundef 52)
  store ptr %24, ptr %18, align 8, !tbaa !60
  br label %25

25:                                               ; preds = %20, %5
  %26 = getelementptr inbounds nuw i8, ptr %0, i64 24
  %27 = load ptr, ptr %26, align 8, !tbaa !55
  %.not59 = icmp eq ptr %27, null
  br i1 %.not59, label %33, label %28

28:                                               ; preds = %25
  %29 = load i32, ptr %0, align 8, !tbaa !44
  %30 = add nsw i32 %29, %1
  %31 = sext i32 %30 to i64
  %32 = tail call noundef ptr @_Z12save_reallocPKcS0_iPvmm(ptr noundef nonnull @.str.15, ptr noundef nonnull @.str.6, i32 noundef 265, ptr noundef nonnull %27, i64 noundef range(i64 -2147483647, 2147483648) %31, i64 noundef 8)
  store ptr %32, ptr %26, align 8, !tbaa !58
  br label %33

33:                                               ; preds = %28, %25
  %34 = getelementptr inbounds nuw i8, ptr %0, i64 32
  %35 = load ptr, ptr %34, align 8, !tbaa !56
  %.not60 = icmp eq ptr %35, null
  br i1 %.not60, label %.lr.ph.preheader, label %36

36:                                               ; preds = %33
  %37 = load i32, ptr %0, align 8, !tbaa !44
  %38 = add nsw i32 %37, %1
  %39 = sext i32 %38 to i64
  %40 = tail call noundef ptr @_Z12save_reallocPKcS0_iPvmm(ptr noundef nonnull @.str.16, ptr noundef nonnull @.str.6, i32 noundef 269, ptr noundef nonnull %35, i64 noundef range(i64 -2147483647, 2147483648) %39, i64 noundef 8)
  store ptr %40, ptr %34, align 8, !tbaa !58
  br label %.lr.ph.preheader

.lr.ph.preheader:                                 ; preds = %33, %36
  %41 = load i32, ptr %0, align 8, !tbaa !44
  %42 = sext i32 %41 to i64
  br label %.lr.ph

._crit_edge:                                      ; preds = %58
  store i32 %60, ptr %0, align 8, !tbaa !44
  br label %63

.lr.ph:                                           ; preds = %.lr.ph.preheader, %58
  %indvars.iv = phi i64 [ %42, %.lr.ph.preheader ], [ %indvars.iv.next, %58 ]
  %43 = load ptr, ptr %6, align 8, !tbaa !54
  %44 = getelementptr inbounds ptr, ptr %43, i64 %indvars.iv
  store ptr null, ptr %44, align 8, !tbaa !61
  %45 = load ptr, ptr %12, align 8, !tbaa !52
  %46 = getelementptr inbounds %struct.t_atom, ptr %45, i64 %indvars.iv
  tail call void @llvm.memset.p0.i64(ptr noundef nonnull align 4 dereferenceable(36) %46, i8 0, i64 36, i1 false)
  %47 = load ptr, ptr %18, align 8, !tbaa !57
  %.not61 = icmp eq ptr %47, null
  br i1 %.not61, label %50, label %48

48:                                               ; preds = %.lr.ph
  %49 = getelementptr inbounds %struct.t_pdbinfo, ptr %47, i64 %indvars.iv
  tail call void @llvm.memset.p0.i64(ptr noundef nonnull align 4 dereferenceable(52) %49, i8 0, i64 52, i1 false)
  br label %50

50:                                               ; preds = %48, %.lr.ph
  %51 = load ptr, ptr %26, align 8, !tbaa !55
  %.not62 = icmp eq ptr %51, null
  br i1 %.not62, label %54, label %52

52:                                               ; preds = %50
  %53 = getelementptr inbounds ptr, ptr %51, i64 %indvars.iv
  store ptr null, ptr %53, align 8, !tbaa !61
  br label %54

54:                                               ; preds = %52, %50
  %55 = load ptr, ptr %34, align 8, !tbaa !56
  %.not63 = icmp eq ptr %55, null
  br i1 %.not63, label %58, label %56

56:                                               ; preds = %54
  %57 = getelementptr inbounds ptr, ptr %55, i64 %indvars.iv
  store ptr null, ptr %57, align 8, !tbaa !61
  br label %58

58:                                               ; preds = %54, %56
  %indvars.iv.next = add nsw i64 %indvars.iv, 1
  %59 = load i32, ptr %0, align 8, !tbaa !44
  %60 = add nsw i32 %59, %1
  %61 = sext i32 %60 to i64
  %62 = icmp slt i64 %indvars.iv.next, %61
  br i1 %62, label %.lr.ph, label %._crit_edge, !llvm.loop !63

63:                                               ; preds = %._crit_edge, %3
  %64 = icmp sgt i32 %2, 0
  br i1 %64, label %.lr.ph68.preheader, label %80

.lr.ph68.preheader:                               ; preds = %63
  %65 = getelementptr inbounds nuw i8, ptr %0, i64 48
  %66 = getelementptr inbounds nuw i8, ptr %0, i64 40
  %67 = load i32, ptr %66, align 8, !tbaa !65
  %68 = add nsw i32 %67, %2
  %69 = sext i32 %68 to i64
  %70 = load ptr, ptr %65, align 8, !tbaa !66
  %71 = tail call noundef ptr @_Z12save_reallocPKcS0_iPvmm(ptr noundef nonnull @.str.17, ptr noundef nonnull @.str.6, i32 noundef 292, ptr noundef %70, i64 noundef range(i64 -2147483647, 2147483648) %69, i64 noundef 32)
  store ptr %71, ptr %65, align 8, !tbaa !66
  %72 = load i32, ptr %66, align 8, !tbaa !65
  %73 = sext i32 %72 to i64
  br label %.lr.ph68

._crit_edge69:                                    ; preds = %.lr.ph68
  store i32 %77, ptr %66, align 8, !tbaa !65
  br label %80

.lr.ph68:                                         ; preds = %.lr.ph68.preheader, %.lr.ph68
  %indvars.iv74 = phi i64 [ %73, %.lr.ph68.preheader ], [ %indvars.iv.next75, %.lr.ph68 ]
  %74 = load ptr, ptr %65, align 8, !tbaa !53
  %75 = getelementptr inbounds %struct.t_resinfo, ptr %74, i64 %indvars.iv74
  tail call void @llvm.memset.p0.i64(ptr noundef nonnull align 8 dereferenceable(32) %75, i8 0, i64 32, i1 false)
  %indvars.iv.next75 = add nsw i64 %indvars.iv74, 1
  %76 = load i32, ptr %66, align 8, !tbaa !65
  %77 = add nsw i32 %76, %2
  %78 = sext i32 %77 to i64
  %79 = icmp slt i64 %indvars.iv.next75, %78
  br i1 %79, label %.lr.ph68, label %._crit_edge69, !llvm.loop !67

80:                                               ; preds = %._crit_edge69, %63
  ret void
}